-----BEGIN RSA PRIVATE KEY-----
MIICXQIBAAKBgQDRZGUr2JRo33Kw1Llk1cpOPhvlaBjMv0JMvOj4MOB8XzbQzBOf
4wUHR4KjhrXayTp5smWvfN5k8LjUn/0BmFB8T9wrM/fzzqdi7bfPMGy9OyK6jmEs
vLhYEZ5qHSPG4zJnEeiWoJjCIjeO7LhR2Zeqkrr/hknDF4s/10bOxvG7rwIDAQAB
AoGBAJ2yW5OK+DKHXmwYuUtcy5Djq8S5AjxpKnh6qYYJ4XcpijH0EC+RHP9fdt7L
HHiapmRy26wvgZpJxRm1KCmkWa/3tjKiAr4IznT9WmO0uznDc742BjxmGS3LNj6F
qE6nLqhfxO4hxtPbC90T5KDgjbG3S/a+eDKD9HVoWQPCxrWhAkEA/HB+l4w0hA5a
Zq1rZXJKc9Q3PpdCyvYQsvnXAounfSbfqTecNtAX2fpbaFtaqG2f2Iyk+UhbwOR5
0F2gWhD6nwJBANRYd1Ozjo87GRhFfJ2lm18PzrZCkzc/UK2ETz3ZX/saoTXoIP5Q
zBb6LEBx39cwA/1jBkJtHFvWmnmrbDiCtPECQBnlZGchf+WoH0f3NFQ01ERrmbs3
AygU9AOYM6FUODtTeJBAXysUT84Rq7zZ2kP68vHhA69658ay6XghkqiKo1sCQBhk
MRDER1Pcjf1jvfS92SMKRcxZyV9HPpUv5YpNNeE6JdpzV5be4RKimgKtEfE96rdo
cIeg0OkbtZLURhIXsYECQQDdgMVRejKgZ/Bnv8RZF0Af0i2dD7g9XCOhnxEFuFQE
prZ+loDjnJRlyCPdsG7B4XDL716Ak1VnHVoaz6JX5RpS
-----END RSA PRIVATE KEY-----
Certificate:
    Data:
        Version: 3 (0x2)
        Serial Number: 1 (0x1)
        Signature Algorithm: sha1WithRSAEncryption
        Issuer: CN=Inveneo CA, C=US, ST=California, L=San Francisco, O=Inveneo, Inc., OU=Inveneo Root Authority Issuer/emailAddress=it@inveneo.org
        Validity
            Not Before: Mar 16 23:24:03 2008 GMT
            Not After : Mar 14 23:24:03 2018 GMT
        Subject: C=US, ST=California, O=Inveneo, Inc., OU=Inveneo IT, CN=*.local/emailAddress=it@inveneo.org
        Subject Public Key Info:
            Public Key Algorithm: rsaEncryption
            RSA Public Key: (1024 bit)
                Modulus (1024 bit):
                    00:d1:64:65:2b:d8:94:68:df:72:b0:d4:b9:64:d5:
                    ca:4e:3e:1b:e5:68:18:cc:bf:42:4c:bc:e8:f8:30:
                    e0:7c:5f:36:d0:cc:13:9f:e3:05:07:47:82:a3:86:
                    b5:da:c9:3a:79:b2:65:af:7c:de:64:f0:b8:d4:9f:
                    fd:01:98:50:7c:4f:dc:2b:33:f7:f3:ce:a7:62:ed:
                    b7:cf:30:6c:bd:3b:22:ba:8e:61:2c:bc:b8:58:11:
                    9e:6a:1d:23:c6:e3:32:67:11:e8:96:a0:98:c2:22:
                    37:8e:ec:b8:51:d9:97:aa:92:ba:ff:86:49:c3:17:
                    8b:3f:d7:46:ce:c6:f1:bb:af
                Exponent: 65537 (0x10001)
        X509v3 extensions:
            X509v3 Basic Constraints: 
                CA:FALSE
            X509v3 Subject Key Identifier: 
                02:49:0D:5A:BC:68:68:C5:D2:4F:3B:3C:BD:C1:35:13:96:19:20:7E
            X509v3 Authority Key Identifier: 
                keyid:E9:9A:20:5B:E1:7D:34:37:03:1B:05:0A:4B:88:ED:FE:25:FE:99:9D
                DirName:/CN=Inveneo CA/C=US/ST=California/L=San Francisco/O=Inveneo, Inc./OU=Inveneo Root Authority Issuer/emailAddress=it@inveneo.org
                serial:EB:7F:F7:38:09:83:20:35

            Netscape CA Revocation Url: 
                http://community.inveneo.org/certs/root_authority/ca-crl.pem
    Signature Algorithm: sha1WithRSAEncryption
        4d:f2:a4:9f:6a:9e:42:a7:11:55:7a:67:6e:46:47:c8:1d:8f:
        2d:73:32:7b:35:26:be:29:57:26:47:db:e4:df:ee:2a:5e:10:
        fa:47:51:af:e2:01:6c:c5:cd:e1:1b:03:77:5a:fb:0b:85:5f:
        36:fd:f4:8b:0d:bb:35:17:d3:28:bf:6c:ff:ab:83:a9:47:06:
        83:6b:49:2c:ce:2e:7c:e0:3e:14:7b:2b:cb:33:4c:1a:e7:82:
        6c:4b:fd:3f:c4:7f:f2:20:e2:11:d5:b2:98:fc:2b:f1:2e:09:
        3e:cf:5e:42:1e:b8:64:17:54:dc:e1:04:a2:95:c8:2a:a7:f0:
        08:16:46:ad:99:e8:03:e5:e7:87:43:be:7b:d7:b9:c8:2f:0d:
        3a:95:69:95:81:aa:f6:b5:bb:80:9e:44:8d:42:13:f0:27:e2:
        16:26:00:d1:8a:a7:1d:38:9c:51:65:1b:00:18:ff:ca:17:f4:
        0a:f1:62:a9:8c:a9:0c:f7:d4:e2:48:32:4a:11:24:68:ab:61:
        e0:b7:88:56:3c:55:70:c5:fb:3a:38:63:1f:49:eb:84:20:d5:
        b3:73:5b:26:49:0b:85:03:db:41:e4:cb:ab:1f:c6:48:d7:cf:
        29:46:5d:d5:f7:95:d8:e4:e8:2f:93:69:19:37:f1:73:69:ed:
        b1:c3:b7:63
-----BEGIN CERTIFICATE-----
MIIEijCCA3KgAwIBAgIBATANBgkqhkiG9w0BAQUFADCBrjETMBEGA1UEAxMKSW52
ZW5lbyBDQTELMAkGA1UEBhMCVVMxEzARBgNVBAgTCkNhbGlmb3JuaWExFjAUBgNV
BAcTDVNhbiBGcmFuY2lzY28xFjAUBgNVBAoTDUludmVuZW8sIEluYy4xJjAkBgNV
BAsTHUludmVuZW8gUm9vdCBBdXRob3JpdHkgSXNzdWVyMR0wGwYJKoZIhvcNAQkB
Fg5pdEBpbnZlbmVvLm9yZzAeFw0wODAzMTYyMzI0MDNaFw0xODAzMTQyMzI0MDNa
MIGAMQswCQYDVQQGEwJVUzETMBEGA1UECBMKQ2FsaWZvcm5pYTEWMBQGA1UEChMN
SW52ZW5lbywgSW5jLjETMBEGA1UECxMKSW52ZW5lbyBJVDEQMA4GA1UEAxQHKi5s
b2NhbDEdMBsGCSqGSIb3DQEJARYOaXRAaW52ZW5lby5vcmcwgZ8wDQYJKoZIhvcN
AQEBBQADgY0AMIGJAoGBANFkZSvYlGjfcrDUuWTVyk4+G+VoGMy/Qky86Pgw4Hxf
NtDME5/jBQdHgqOGtdrJOnmyZa983mTwuNSf/QGYUHxP3Csz9/POp2Ltt88wbL07
IrqOYSy8uFgRnmodI8bjMmcR6JagmMIiN47suFHZl6qSuv+GScMXiz/XRs7G8buv
AgMBAAGjggFhMIIBXTAJBgNVHRMEAjAAMB0GA1UdDgQWBBQCSQ1avGhoxdJPOzy9
wTUTlhkgfjCB4wYDVR0jBIHbMIHYgBTpmiBb4X00NwMbBQpLiO3+Jf6ZnaGBtKSB
sTCBrjETMBEGA1UEAxMKSW52ZW5lbyBDQTELMAkGA1UEBhMCVVMxEzARBgNVBAgT
CkNhbGlmb3JuaWExFjAUBgNVBAcTDVNhbiBGcmFuY2lzY28xFjAUBgNVBAoTDUlu
dmVuZW8sIEluYy4xJjAkBgNVBAsTHUludmVuZW8gUm9vdCBBdXRob3JpdHkgSXNz
dWVyMR0wGwYJKoZIhvcNAQkBFg5pdEBpbnZlbmVvLm9yZ4IJAOt/9zgJgyA1MEsG
CWCGSAGG+EIBBAQ+FjxodHRwOi8vY29tbXVuaXR5LmludmVuZW8ub3JnL2NlcnRz
L3Jvb3RfYXV0aG9yaXR5L2NhLWNybC5wZW0wDQYJKoZIhvcNAQEFBQADggEBAE3y
pJ9qnkKnEVV6Z25GR8gdjy1zMns1Jr4pVyZH2+Tf7ipeEPpHUa/iAWzFzeEbA3da
+wuFXzb99IsNuzUX0yi/bP+rg6lHBoNrSSzOLnzgPhR7K8szTBrngmxL/T/Ef/Ig
4hHVspj8K/EuCT7PXkIeuGQXVNzhBKKVyCqn8AgWRq2Z6APl54dDvnvXucgvDTqV
aZWBqva1u4CeRI1CE/An4hYmANGKpx04nFFlGwAY/8oX9ArxYqmMqQz31OJIMkoR
JGirYeC3iFY8VXDF+zo4Yx9J64Qg1bNzWyZJC4UD20Hky6sfxkjXzylGXdX3ldjk
6C+TaRk38XNp7bHDt2M=
-----END CERTIFICATE-----
