Certificate:
    Data:
        Version: 3 (0x2)
        Serial Number: 2 (0x2)
        Signature Algorithm: sha1WithRSAEncryption
        Issuer: C=US, ST=CA, L=SanFrancisco, O=Inveneo, CN=Inveneo CA/emailAddress=support@inveneo.org
        Validity
            Not Before: Oct 25 23:31:22 2010 GMT
            Not After : Oct 22 23:31:22 2020 GMT
        Subject: C=US, ST=CA, L=SanFrancisco, O=Inveneo, CN=inveneo-global/emailAddress=support@inveneo.org
        Subject Public Key Info:
            Public Key Algorithm: rsaEncryption
            RSA Public Key: (1024 bit)
                Modulus (1024 bit):
                    00:bd:ec:21:69:5d:2c:fc:f9:82:5b:ae:03:eb:6e:
                    95:26:4b:ed:eb:49:90:62:4e:e5:b9:9e:ff:e7:40:
                    d9:35:70:de:aa:c3:8d:c0:c0:6c:b2:c9:45:d2:37:
                    b8:3d:93:ea:e1:a1:dd:de:f3:b8:c0:9c:4d:63:91:
                    8d:ec:64:73:fe:37:10:35:1f:a7:ed:72:60:9a:5d:
                    53:68:e0:d2:f2:e1:92:c1:97:81:ad:af:ed:6b:f9:
                    a0:61:b1:56:9f:75:5f:31:70:60:35:86:a8:c8:48:
                    8a:50:b5:7f:80:ed:85:ce:50:1f:fa:cd:3b:39:f2:
                    57:f7:cf:d8:10:ef:e4:a4:5f
                Exponent: 65537 (0x10001)
        X509v3 extensions:
            X509v3 Basic Constraints: 
                CA:FALSE
            Netscape Comment: 
                Easy-RSA Generated Certificate
            X509v3 Subject Key Identifier: 
                41:BD:F7:D3:96:9F:5B:E6:67:11:6A:54:75:1A:BC:1C:46:6A:F2:F3
            X509v3 Authority Key Identifier: 
                keyid:80:CE:26:5D:CE:E7:FC:AB:4F:8D:81:6F:E3:A3:5E:66:0A:1E:26:9A
                DirName:/C=US/ST=CA/L=SanFrancisco/O=Inveneo/CN=Inveneo CA/emailAddress=support@inveneo.org
                serial:95:F5:52:59:60:90:DC:94

            X509v3 Extended Key Usage: 
                TLS Web Client Authentication
            X509v3 Key Usage: 
                Digital Signature
    Signature Algorithm: sha1WithRSAEncryption
        2a:bb:c6:0d:a8:5d:08:20:fc:4e:8f:07:31:e4:ec:02:fe:ac:
        30:ae:52:50:e1:8c:25:5e:c8:99:07:a9:28:17:35:22:52:1e:
        95:f1:70:f2:88:23:3e:ce:bf:02:ad:64:ff:dd:cf:36:6d:12:
        0a:54:95:54:2c:ab:25:6f:46:0d:e2:3c:79:37:3d:b3:02:7d:
        7b:c7:da:5a:53:d3:69:11:f4:65:fb:02:6b:8f:f6:02:eb:a3:
        b4:75:f8:ea:cc:21:56:aa:86:53:e2:54:36:31:73:a6:a5:b9:
        a5:2f:1b:bc:17:c4:15:99:55:4f:4f:53:df:3c:f5:4c:00:ab:
        3c:fa
-----BEGIN CERTIFICATE-----
MIIDpjCCAw+gAwIBAgIBAjANBgkqhkiG9w0BAQUFADB8MQswCQYDVQQGEwJVUzEL
MAkGA1UECBMCQ0ExFTATBgNVBAcTDFNhbkZyYW5jaXNjbzEQMA4GA1UEChMHSW52
ZW5lbzETMBEGA1UEAxMKSW52ZW5lbyBDQTEiMCAGCSqGSIb3DQEJARYTc3VwcG9y
dEBpbnZlbmVvLm9yZzAeFw0xMDEwMjUyMzMxMjJaFw0yMDEwMjIyMzMxMjJaMIGA
MQswCQYDVQQGEwJVUzELMAkGA1UECBMCQ0ExFTATBgNVBAcTDFNhbkZyYW5jaXNj
bzEQMA4GA1UEChMHSW52ZW5lbzEXMBUGA1UEAxMOaW52ZW5lby1nbG9iYWwxIjAg
BgkqhkiG9w0BCQEWE3N1cHBvcnRAaW52ZW5lby5vcmcwgZ8wDQYJKoZIhvcNAQEB
BQADgY0AMIGJAoGBAL3sIWldLPz5gluuA+tulSZL7etJkGJO5bme/+dA2TVw3qrD
jcDAbLLJRdI3uD2T6uGh3d7zuMCcTWORjexkc/43EDUfp+1yYJpdU2jg0vLhksGX
ga2v7Wv5oGGxVp91XzFwYDWGqMhIilC1f4Dthc5QH/rNOznyV/fP2BDv5KRfAgMB
AAGjggExMIIBLTAJBgNVHRMEAjAAMC0GCWCGSAGG+EIBDQQgFh5FYXN5LVJTQSBH
ZW5lcmF0ZWQgQ2VydGlmaWNhdGUwHQYDVR0OBBYEFEG999OWn1vmZxFqVHUavBxG
avLzMIGvBgNVHSMEgacwgaSAFIDOJl3O5/yrT42Bb+OjXmYKHiaaoYGApH4wfDEL
MAkGA1UEBhMCVVMxCzAJBgNVBAgTAkNBMRUwEwYDVQQHEwxTYW5GcmFuY2lzY28x
EDAOBgNVBAoTB0ludmVuZW8xEzARBgNVBAMTCkludmVuZW8gQ0ExIjAgBgkqhkiG
9w0BCQEWE3N1cHBvcnRAaW52ZW5lby5vcmeCCQCV9VJZYJDclDATBgNVHSUEDDAK
BggrBgEFBQcDAjALBgNVHQ8EBAMCB4AwDQYJKoZIhvcNAQEFBQADgYEAKrvGDahd
CCD8To8HMeTsAv6sMK5SUOGMJV7ImQepKBc1IlIelfFw8ogjPs6/Aq1k/93PNm0S
ClSVVCyrJW9GDeI8eTc9swJ9e8faWlPTaRH0ZfsCa4/2AuujtHX46swhVqqGU+JU
NjFzpqW5pS8bvBfEFZlVT09T3zz1TACrPPo=
-----END CERTIFICATE-----
